target datalayout = "e-m:e-p270:32:32-p271:32:32-p272:64:64-i64:64-i128:128-f80:128-n8:16:32:64-S128"
target triple = "x86_64-pc-linux-gnu"

%struct._zval_struct = type { %union._zend_value, %union.anon.0, %union.anon.3 }
%union._zend_value = type { i64 }
%union.anon.0 = type { i32 }
%union.anon.3 = type { i32 }
%struct._dom_nnodemap_object = type { ptr, %struct._zval_struct, i32, i32, ptr, ptr, ptr, %struct.php_libxml_cache_tag, ptr, i32, i8 }
%struct.php_libxml_cache_tag = type { i64 }
%struct._xmlNode = type { ptr, i32, ptr, ptr, ptr, ptr, ptr, ptr, ptr, ptr, ptr, ptr, ptr, ptr, i16, i16 }

; Function Attrs: nounwind uwtable
define hidden ptr @php_dom_named_node_map_get_item(ptr noundef %0, i64 noundef %1) #0 {
  %3 = alloca ptr, align 8
  %4 = alloca i64, align 8
  %5 = alloca ptr, align 8
  %6 = alloca ptr, align 8
  %7 = alloca ptr, align 8
  %8 = alloca i64, align 8
  store ptr %0, ptr %3, align 8
  store i64 %1, ptr %4, align 8
  store ptr null, ptr %5, align 8
  %9 = load ptr, ptr %3, align 8
  %10 = icmp ne ptr %9, null
  br i1 %10, label %11, label %77

11:                                               ; preds = %2
  %12 = load ptr, ptr %3, align 8
  %13 = getelementptr inbounds %struct._dom_nnodemap_object, ptr %12, i32 0, i32 2
  %14 = load i32, ptr %13, align 8
  %15 = icmp eq i32 %14, 12
  br i1 %15, label %21, label %16

16:                                               ; preds = %11
  %17 = load ptr, ptr %3, align 8
  %18 = getelementptr inbounds %struct._dom_nnodemap_object, ptr %17, i32 0, i32 2
  %19 = load i32, ptr %18, align 8
  %20 = icmp eq i32 %19, 6
  br i1 %20, label %21, label %47

21:                                               ; preds = %16, %11
  %22 = load ptr, ptr %3, align 8
  %23 = getelementptr inbounds %struct._dom_nnodemap_object, ptr %22, i32 0, i32 4
  %24 = load ptr, ptr %23, align 8
  %25 = icmp ne ptr %24, null
  br i1 %25, label %26, label %46

26:                                               ; preds = %21
  %27 = load ptr, ptr %3, align 8
  %28 = getelementptr inbounds %struct._dom_nnodemap_object, ptr %27, i32 0, i32 2
  %29 = load i32, ptr %28, align 8
  %30 = icmp eq i32 %29, 6
  br i1 %30, label %31, label %38

31:                                               ; preds = %26
  %32 = load ptr, ptr %3, align 8
  %33 = getelementptr inbounds %struct._dom_nnodemap_object, ptr %32, i32 0, i32 4
  %34 = load ptr, ptr %33, align 8
  %35 = load i64, ptr %4, align 8
  %36 = trunc i64 %35 to i32
  %37 = call ptr @php_dom_libxml_hash_iter(ptr noundef %34, i32 noundef %36)
  store ptr %37, ptr %5, align 8
  br label %45

38:                                               ; preds = %26
  %39 = load ptr, ptr %3, align 8
  %40 = getelementptr inbounds %struct._dom_nnodemap_object, ptr %39, i32 0, i32 4
  %41 = load ptr, ptr %40, align 8
  %42 = load i64, ptr %4, align 8
  %43 = trunc i64 %42 to i32
  %44 = call ptr @php_dom_libxml_notation_iter(ptr noundef %41, i32 noundef %43)
  store ptr %44, ptr %5, align 8
  br label %45

45:                                               ; preds = %38, %31
  br label %46

46:                                               ; preds = %45, %21
  br label %76

47:                                               ; preds = %16
  %48 = load ptr, ptr %3, align 8
  %49 = getelementptr inbounds %struct._dom_nnodemap_object, ptr %48, i32 0, i32 0
  %50 = load ptr, ptr %49, align 8
  %51 = call ptr @dom_object_get_node(ptr noundef %50)
  store ptr %51, ptr %6, align 8
  %52 = load ptr, ptr %6, align 8
  %53 = icmp ne ptr %52, null
  br i1 %53, label %54, label %75

54:                                               ; preds = %47
  %55 = load ptr, ptr %6, align 8
  %56 = getelementptr inbounds %struct._xmlNode, ptr %55, i32 0, i32 11
  %57 = load ptr, ptr %56, align 8
  store ptr %57, ptr %7, align 8
  store i64 0, ptr %8, align 8
  br label %58

58:                                               ; preds = %67, %54
  %59 = load i64, ptr %8, align 8
  %60 = load i64, ptr %4, align 8
  %61 = icmp slt i64 %59, %60
  br i1 %61, label %62, label %65

62:                                               ; preds = %58
  %63 = load ptr, ptr %7, align 8
  %64 = icmp ne ptr %63, null
  br label %65

65:                                               ; preds = %62, %58
  %66 = phi i1 [ false, %58 ], [ %64, %62 ]
  br i1 %66, label %67, label %73

67:                                               ; preds = %65
  %68 = load i64, ptr %8, align 8
  %69 = add nsw i64 %68, 1
  store i64 %69, ptr %8, align 8
  %70 = load ptr, ptr %7, align 8
  %71 = getelementptr inbounds %struct._xmlNode, ptr %70, i32 0, i32 6
  %72 = load ptr, ptr %71, align 8
  store ptr %72, ptr %7, align 8
  br label %58

73:                                               ; preds = %65
  %74 = load ptr, ptr %7, align 8
  store ptr %74, ptr %5, align 8
  br label %75

75:                                               ; preds = %73, %47
  br label %76

76:                                               ; preds = %75, %46
  br label %77

77:                                               ; preds = %76, %2
  %78 = load ptr, ptr %5, align 8
  ret ptr %78
}