; Function Attrs: nounwind uwtable
define hidden ptr @php_dom_named_node_map_get_item(ptr noundef readonly %0, i64 noundef %1) local_unnamed_addr #0 {
  %.not = icmp eq ptr %0, null
  br i1 %.not, label %.loopexit, label %3

3:                                                ; preds = %2
  %4 = getelementptr inbounds i8, ptr %0, i64 24
  %5 = load i32, ptr %4, align 8
  switch i32 %5, label %16 [
    i32 12, label %6
    i32 6, label %6
  ]

6:                                                ; preds = %3, %3
  %7 = getelementptr inbounds i8, ptr %0, i64 32
  %8 = load ptr, ptr %7, align 8
  %.not25 = icmp eq ptr %8, null
  br i1 %.not25, label %.loopexit, label %9

9:                                                ; preds = %6
  %10 = icmp eq i32 %5, 6
  %11 = trunc i64 %1 to i32
  br i1 %10, label %12, label %14

12:                                               ; preds = %9
  %13 = tail call ptr @php_dom_libxml_hash_iter(ptr noundef nonnull %8, i32 noundef %11) #3
  br label %.loopexit

14:                                               ; preds = %9
  %15 = tail call ptr @php_dom_libxml_notation_iter(ptr noundef nonnull %8, i32 noundef %11) #3
  br label %.loopexit

16:                                               ; preds = %3
  %17 = load ptr, ptr %0, align 8
  %18 = tail call ptr @dom_object_get_node(ptr noundef %17) #3
  %.not24 = icmp eq ptr %18, null
  br i1 %.not24, label %.loopexit, label %19

19:                                               ; preds = %16
  %20 = getelementptr inbounds i8, ptr %18, i64 88
  %.01826 = load ptr, ptr %20, align 8
  %21 = icmp sgt i64 %1, 0
  %22 = icmp ne ptr %.01826, null
  %23 = select i1 %21, i1 %22, i1 false
  br i1 %23, label %.lr.ph, label %.loopexit

.lr.ph:                                           ; preds = %19, %.lr.ph
  %.01828 = phi ptr [ %.018, %.lr.ph ], [ %.01826, %19 ]
  %.027 = phi i64 [ %24, %.lr.ph ], [ 0, %19 ]
  %24 = add nuw nsw i64 %.027, 1
  %25 = getelementptr inbounds i8, ptr %.01828, i64 48
  %.018 = load ptr, ptr %25, align 8
  %26 = icmp slt i64 %24, %1
  %27 = icmp ne ptr %.018, null
  %28 = select i1 %26, i1 %27, i1 false
  br i1 %28, label %.lr.ph, label %.loopexit

.loopexit:                                        ; preds = %.lr.ph, %19, %12, %14, %6, %16, %2
  %.019 = phi ptr [ %13, %12 ], [ %15, %14 ], [ null, %6 ], [ null, %16 ], [ null, %2 ], [ %.01826, %19 ], [ %.018, %.lr.ph ]
  ret ptr %.019
}